target datalayout = "e-m:e-p270:32:32-p271:32:32-p272:64:64-i64:64-i128:128-f80:128-n8:16:32:64-S128"
target triple = "x86_64-pc-linux-gnu"

; Function Attrs: mustprogress nounwind uwtable
define linkonce_odr noundef zeroext i16 @_ZNSt14numeric_limitsItE3maxEv() #0 comdat align 2 {
  ret i16 -1
}

; Function Attrs: mustprogress nounwind uwtable
define internal noundef zeroext i1 @_ZN3net12_GLOBAL__N_124ParsePositiveIntegerImplItEEbPKcS3_PT_(ptr noundef %0, ptr noundef %1, ptr noundef %2) #0 {
  %4 = alloca i1, align 1
  %5 = alloca ptr, align 8
  %6 = alloca ptr, align 8
  %7 = alloca ptr, align 8
  store ptr %0, ptr %5, align 8, !tbaa !32
  store ptr %1, ptr %6, align 8, !tbaa !32
  store ptr %2, ptr %7, align 8, !tbaa !57
  %8 = load ptr, ptr %7, align 8, !tbaa !57
  store i16 0, ptr %8, align 2, !tbaa !26
  br label %9

9:                                                ; preds = %58, %3
  %10 = load ptr, ptr %5, align 8, !tbaa !32
  %11 = load ptr, ptr %6, align 8, !tbaa !32
  %12 = icmp ne ptr %10, %11
  br i1 %12, label %13, label %19

13:                                               ; preds = %9
  %14 = load ptr, ptr %5, align 8, !tbaa !32
  %15 = load i8, ptr %14, align 1, !tbaa !33
  %16 = sext i8 %15 to i32
  %17 = call i32 @isdigit(i32 noundef %16) #17
  %18 = icmp ne i32 %17, 0
  br label %19

19:                                               ; preds = %13, %9
  %20 = phi i1 [ false, %9 ], [ %18, %13 ]
  br i1 %20, label %21, label %61

21:                                               ; preds = %19
  %22 = load ptr, ptr %7, align 8, !tbaa !57
  %23 = load i16, ptr %22, align 2, !tbaa !26
  %24 = zext i16 %23 to i32
  %25 = call noundef zeroext i16 @_ZNSt14numeric_limitsItE3maxEv() #15
  %26 = zext i16 %25 to i32
  %27 = sdiv i32 %26, 10
  %28 = icmp sgt i32 %24, %27
  br i1 %28, label %29, label %30

29:                                               ; preds = %21
  store i1 false, ptr %4, align 1
  br label %72

30:                                               ; preds = %21
  %31 = load ptr, ptr %7, align 8, !tbaa !57
  %32 = load i16, ptr %31, align 2, !tbaa !26
  %33 = zext i16 %32 to i32
  %34 = mul nsw i32 %33, 10
  %35 = trunc i32 %34 to i16
  store i16 %35, ptr %31, align 2, !tbaa !26
  %36 = load ptr, ptr %7, align 8, !tbaa !57
  %37 = load i16, ptr %36, align 2, !tbaa !26
  %38 = zext i16 %37 to i32
  %39 = call noundef zeroext i16 @_ZNSt14numeric_limitsItE3maxEv() #15
  %40 = zext i16 %39 to i32
  %41 = load ptr, ptr %5, align 8, !tbaa !32
  %42 = load i8, ptr %41, align 1, !tbaa !33
  %43 = sext i8 %42 to i32
  %44 = sub nsw i32 %43, 48
  %45 = sub nsw i32 %40, %44
  %46 = icmp sgt i32 %38, %45
  br i1 %46, label %47, label %48

47:                                               ; preds = %30
  store i1 false, ptr %4, align 1
  br label %72

48:                                               ; preds = %30
  %49 = load ptr, ptr %5, align 8, !tbaa !32
  %50 = load i8, ptr %49, align 1, !tbaa !33
  %51 = sext i8 %50 to i32
  %52 = sub nsw i32 %51, 48
  %53 = load ptr, ptr %7, align 8, !tbaa !57
  %54 = load i16, ptr %53, align 2, !tbaa !26
  %55 = zext i16 %54 to i32
  %56 = add nsw i32 %55, %52
  %57 = trunc i32 %56 to i16
  store i16 %57, ptr %53, align 2, !tbaa !26
  br label %58

58:                                               ; preds = %48
  %59 = load ptr, ptr %5, align 8, !tbaa !32
  %60 = getelementptr inbounds nuw i8, ptr %59, i32 1
  store ptr %60, ptr %5, align 8, !tbaa !32
  br label %9, !llvm.loop !83

61:                                               ; preds = %19
  %62 = load ptr, ptr %5, align 8, !tbaa !32
  %63 = load ptr, ptr %6, align 8, !tbaa !32
  %64 = icmp eq ptr %62, %63
  br i1 %64, label %65, label %70

65:                                               ; preds = %61
  %66 = load ptr, ptr %7, align 8, !tbaa !57
  %67 = load i16, ptr %66, align 2, !tbaa !26
  %68 = zext i16 %67 to i32
  %69 = icmp sgt i32 %68, 0
  br label %70

70:                                               ; preds = %65, %61
  %71 = phi i1 [ false, %61 ], [ %69, %65 ]
  store i1 %71, ptr %4, align 1
  br label %72

72:                                               ; preds = %70, %47, %29
  %73 = load i1, ptr %4, align 1
  ret i1 %73
}

; Function Attrs: mustprogress uwtable
define noundef zeroext i1 @_ZN3net20SpdyAltSvcWireFormat22ParsePositiveInteger16EPKcS2_Pt(ptr noundef %0, ptr noundef %1, ptr noundef %2) #1 align 2 {
  %4 = alloca ptr, align 8
  %5 = alloca ptr, align 8
  %6 = alloca ptr, align 8
  store ptr %0, ptr %4, align 8, !tbaa !32
  store ptr %1, ptr %5, align 8, !tbaa !32
  store ptr %2, ptr %6, align 8, !tbaa !57
  %7 = load ptr, ptr %4, align 8, !tbaa !32
  %8 = load ptr, ptr %5, align 8, !tbaa !32
  %9 = load ptr, ptr %6, align 8, !tbaa !57
  %10 = call noundef zeroext i1 @_ZN3net12_GLOBAL__N_124ParsePositiveIntegerImplItEEbPKcS3_PT_(ptr noundef %7, ptr noundef %8, ptr noundef %9)
  ret i1 %10
}