; Function Attrs: mustprogress nofree norecurse nosync nounwind memory(argmem: readwrite) uwtable
define noundef zeroext i1 @_ZN3net20SpdyAltSvcWireFormat22ParsePositiveInteger16EPKcS2_Pt(ptr noundef readonly captures(address) %0, ptr noundef readnone captures(address) %1, ptr noundef writeonly captures(none) initializes((0, 2)) %2) local_unnamed_addr #10 align 2 {
  store i16 0, ptr %2, align 2, !tbaa !48
  %.not16.i = icmp eq ptr %0, %1
  br i1 %.not16.i, label %_ZN3net12_GLOBAL__N_124ParsePositiveIntegerImplItEEbPKcS3_PT_.exit, label %.lr.ph.i

.lr.ph.i:                                         ; preds = %3, %16
  %4 = phi i16 [ %19, %16 ], [ 0, %3 ]
  %.01517.i = phi ptr [ %20, %16 ], [ %0, %3 ]
  %5 = load i8, ptr %.01517.i, align 1, !tbaa !12
  %6 = sext i8 %5 to i32
  %7 = add nsw i32 %6, -58
  %isdigit.i = icmp ult i32 %7, -10
  %8 = icmp ugt i16 %4, 6553
  %or.cond.i = or i1 %8, %isdigit.i
  br i1 %or.cond.i, label %_ZN3net12_GLOBAL__N_124ParsePositiveIntegerImplItEEbPKcS3_PT_.exit, label %9

9:                                                ; preds = %.lr.ph.i
  %10 = mul nuw i16 %4, 10
  store i16 %10, ptr %2, align 2, !tbaa !48
  %11 = zext i16 %10 to i32
  %12 = load i8, ptr %.01517.i, align 1, !tbaa !12
  %13 = sext i8 %12 to i32
  %14 = sub nsw i32 65583, %13
  %15 = icmp samesign ult i32 %14, %11
  br i1 %15, label %_ZN3net12_GLOBAL__N_124ParsePositiveIntegerImplItEEbPKcS3_PT_.exit, label %16

16:                                               ; preds = %9
  %17 = sext i8 %12 to i16
  %18 = add i16 %10, -48
  %19 = add i16 %18, %17
  store i16 %19, ptr %2, align 2, !tbaa !48
  %20 = getelementptr inbounds nuw i8, ptr %.01517.i, i64 1
  %.not.i = icmp eq ptr %20, %1
  br i1 %.not.i, label %._crit_edge.loopexit.i, label %.lr.ph.i, !llvm.loop !47

._crit_edge.loopexit.i:                           ; preds = %16
  %21 = icmp ne i16 %19, 0
  br label %_ZN3net12_GLOBAL__N_124ParsePositiveIntegerImplItEEbPKcS3_PT_.exit

_ZN3net12_GLOBAL__N_124ParsePositiveIntegerImplItEEbPKcS3_PT_.exit: ; preds = %.lr.ph.i, %9, %3, %._crit_edge.loopexit.i
  %.0.i = phi i1 [ %21, %._crit_edge.loopexit.i ], [ false, %3 ], [ false, %9 ], [ false, %.lr.ph.i ]
  ret i1 %.0.i
}